; Function Attrs: mustprogress uwtable
define hidden noundef zeroext i1 @_ZNK2pb4card18is_extended_binaryER7svectorIN3sat7literalEjE(ptr noundef nonnull readonly align 8 captures(address) dereferenceable(64) %0, ptr noundef nonnull align 8 dereferenceable(8) %1) unnamed_addr #8 align 2 {
  %3 = getelementptr inbounds nuw i8, ptr %0, i64 32
  %4 = load i32, ptr %3, align 8, !tbaa !20
  %5 = getelementptr inbounds nuw i8, ptr %0, i64 60
  %6 = load i32, ptr %5, align 4, !tbaa !25
  %7 = add i32 %6, 1
  %8 = icmp eq i32 %4, %7
  %9 = getelementptr inbounds nuw i8, ptr %0, i64 16
  %.sroa.0.0.copyload.i = load i32, ptr %9, align 8
  %10 = icmp eq i32 %.sroa.0.0.copyload.i, -2
  %or.cond = select i1 %8, i1 %10, i1 false
  br i1 %or.cond, label %11, label %.critedge

11:                                               ; preds = %2
  %12 = load ptr, ptr %1, align 8, !tbaa !3
  %.not.i = icmp eq ptr %12, null
  br i1 %.not.i, label %_ZN6vectorIN3sat7literalELb0EjE5resetEv.exit, label %13

13:                                               ; preds = %11
  %14 = getelementptr inbounds i8, ptr %12, i64 -4
  store i32 0, ptr %14, align 4, !tbaa !9
  %.pre = load i32, ptr %3, align 8, !tbaa !20
  br label %_ZN6vectorIN3sat7literalELb0EjE5resetEv.exit

_ZN6vectorIN3sat7literalELb0EjE5resetEv.exit:     ; preds = %11, %13
  %15 = phi i32 [ %4, %11 ], [ %.pre, %13 ]
  %16 = zext i32 %15 to i64
  %.idx = shl nuw nsw i64 %16, 2
  %17 = getelementptr inbounds nuw i8, ptr %0, i64 %.idx
  %.ptr19 = getelementptr inbounds nuw i8, ptr %17, i64 64
  %.not17 = icmp eq i32 %15, 0
  br i1 %.not17, label %.critedge, label %.lr.ph.preheader

.lr.ph.preheader:                                 ; preds = %_ZN6vectorIN3sat7literalELb0EjE5resetEv.exit
  %.ptr = getelementptr inbounds nuw i8, ptr %0, i64 64
  br label %.lr.ph

.lr.ph:                                           ; preds = %.lr.ph.preheader, %_ZN6vectorIN3sat7literalELb0EjE9push_backERKS1_.exit
  %18 = phi ptr [ %28, %_ZN6vectorIN3sat7literalELb0EjE9push_backERKS1_.exit ], [ %12, %.lr.ph.preheader ]
  %.01418 = phi ptr [ %34, %_ZN6vectorIN3sat7literalELb0EjE9push_backERKS1_.exit ], [ %.ptr, %.lr.ph.preheader ]
  %19 = load i32, ptr %.01418, align 4, !tbaa !9
  %20 = icmp eq ptr %18, null
  br i1 %20, label %27, label %21

21:                                               ; preds = %.lr.ph
  %22 = getelementptr inbounds i8, ptr %18, i64 -4
  %23 = load i32, ptr %22, align 4, !tbaa !9
  %24 = getelementptr inbounds i8, ptr %18, i64 -8
  %25 = load i32, ptr %24, align 4, !tbaa !9
  %26 = icmp eq i32 %23, %25
  br i1 %26, label %27, label %_ZN6vectorIN3sat7literalELb0EjE9push_backERKS1_.exit

27:                                               ; preds = %21, %.lr.ph
  tail call void @_ZN6vectorIN3sat7literalELb0EjE13expand_vectorEv(ptr noundef nonnull align 8 dereferenceable(8) %1)
  %.pre.i = load ptr, ptr %1, align 8, !tbaa !3
  %.phi.trans.insert.i = getelementptr inbounds i8, ptr %.pre.i, i64 -4
  %.pre2.i = load i32, ptr %.phi.trans.insert.i, align 4, !tbaa !9
  br label %_ZN6vectorIN3sat7literalELb0EjE9push_backERKS1_.exit

_ZN6vectorIN3sat7literalELb0EjE9push_backERKS1_.exit: ; preds = %21, %27
  %28 = phi ptr [ %.pre.i, %27 ], [ %18, %21 ]
  %29 = phi i32 [ %.pre2.i, %27 ], [ %23, %21 ]
  %30 = getelementptr inbounds i8, ptr %28, i64 -4
  %31 = zext i32 %29 to i64
  %32 = getelementptr inbounds nuw %"class.sat::literal", ptr %28, i64 %31
  store i32 %19, ptr %32, align 4, !tbaa !9
  %33 = add i32 %29, 1
  store i32 %33, ptr %30, align 4, !tbaa !9
  %34 = getelementptr inbounds nuw i8, ptr %.01418, i64 4
  %.not = icmp eq ptr %34, %.ptr19
  br i1 %.not, label %.critedge, label %.lr.ph

.critedge:                                        ; preds = %_ZN6vectorIN3sat7literalELb0EjE9push_backERKS1_.exit, %_ZN6vectorIN3sat7literalELb0EjE5resetEv.exit, %2
  ret i1 %or.cond
}